target datalayout = "e-m:e-p270:32:32-p271:32:32-p272:64:64-i64:64-i128:128-f80:128-n8:16:32:64-S128"
target triple = "x86_64-pc-linux-gnu"

%struct.cmsCIELab = type { double, double, double }

; Function Attrs: nounwind uwtable
define internal i32 @_cmsQuickFloor(double noundef %0) #0 {
  %2 = alloca double, align 8
  store double %0, ptr %2, align 8
  %3 = load double, ptr %2, align 8
  %4 = call double @llvm.floor.f64(double %3)
  %5 = fptosi double %4 to i32
  ret i32 %5
}

; Function Attrs: nounwind uwtable
define internal zeroext i16 @_cmsQuickFloorWord(double noundef %0) #0 {
  %2 = alloca double, align 8
  store double %0, ptr %2, align 8
  %3 = load double, ptr %2, align 8
  %4 = fsub double %3, 3.276700e+04
  %5 = call i32 @_cmsQuickFloor(double noundef %4)
  %6 = trunc i32 %5 to i16
  %7 = zext i16 %6 to i32
  %8 = add i32 %7, 32767
  %9 = trunc i32 %8 to i16
  ret i16 %9
}

; Function Attrs: nounwind uwtable
define internal zeroext i16 @_cmsQuickSaturateWord(double noundef %0) #0 {
  %2 = alloca i16, align 2
  %3 = alloca double, align 8
  store double %0, ptr %3, align 8
  %4 = load double, ptr %3, align 8
  %5 = fadd double %4, 5.000000e-01
  store double %5, ptr %3, align 8
  %6 = load double, ptr %3, align 8
  %7 = fcmp ole double %6, 0.000000e+00
  br i1 %7, label %8, label %9

8:                                                ; preds = %1
  store i16 0, ptr %2, align 2
  br label %16

9:                                                ; preds = %1
  %10 = load double, ptr %3, align 8
  %11 = fcmp oge double %10, 6.553500e+04
  br i1 %11, label %12, label %13

12:                                               ; preds = %9
  store i16 -1, ptr %2, align 2
  br label %16

13:                                               ; preds = %9
  %14 = load double, ptr %3, align 8
  %15 = call zeroext i16 @_cmsQuickFloorWord(double noundef %14)
  store i16 %15, ptr %2, align 2
  br label %16

16:                                               ; preds = %13, %12, %8
  %17 = load i16, ptr %2, align 2
  ret i16 %17
}

; Function Attrs: nounwind uwtable
define internal zeroext i16 @ab2Fix4(double noundef %0) #0 {
  %2 = alloca double, align 8
  store double %0, ptr %2, align 8
  %3 = load double, ptr %2, align 8
  %4 = fadd double %3, 1.280000e+02
  %5 = fmul double %4, 2.570000e+02
  %6 = call zeroext i16 @_cmsQuickSaturateWord(double noundef %5)
  ret i16 %6
}

; Function Attrs: nounwind uwtable
define internal zeroext i16 @L2Fix4(double noundef %0) #0 {
  %2 = alloca double, align 8
  store double %0, ptr %2, align 8
  %3 = load double, ptr %2, align 8
  %4 = fmul double %3, 6.553500e+02
  %5 = call zeroext i16 @_cmsQuickSaturateWord(double noundef %4)
  ret i16 %5
}

; Function Attrs: nounwind uwtable
define internal double @Clamp_ab_doubleV4(double noundef %0) #0 {
  %2 = alloca double, align 8
  store double %0, ptr %2, align 8
  %3 = load double, ptr %2, align 8
  %4 = fcmp olt double %3, -1.280000e+02
  br i1 %4, label %5, label %6

5:                                                ; preds = %1
  store double -1.280000e+02, ptr %2, align 8
  br label %6

6:                                                ; preds = %5, %1
  %7 = load double, ptr %2, align 8
  %8 = fcmp ogt double %7, 1.270000e+02
  br i1 %8, label %9, label %10

9:                                                ; preds = %6
  store double 1.270000e+02, ptr %2, align 8
  br label %10

10:                                               ; preds = %9, %6
  %11 = load double, ptr %2, align 8
  ret double %11
}

; Function Attrs: nounwind uwtable
define internal double @Clamp_L_doubleV4(double noundef %0) #0 {
  %2 = alloca double, align 8
  store double %0, ptr %2, align 8
  %3 = load double, ptr %2, align 8
  %4 = fcmp olt double %3, 0.000000e+00
  br i1 %4, label %5, label %6

5:                                                ; preds = %1
  store double 0.000000e+00, ptr %2, align 8
  br label %6

6:                                                ; preds = %5, %1
  %7 = load double, ptr %2, align 8
  %8 = fcmp ogt double %7, 1.000000e+02
  br i1 %8, label %9, label %10

9:                                                ; preds = %6
  store double 1.000000e+02, ptr %2, align 8
  br label %10

10:                                               ; preds = %9, %6
  %11 = load double, ptr %2, align 8
  ret double %11
}

; Function Attrs: nounwind uwtable
define hidden void @cmsFloat2LabEncoded(ptr noundef %0, ptr noundef %1) #0 {
  %3 = alloca ptr, align 8
  %4 = alloca ptr, align 8
  %5 = alloca %struct.cmsCIELab, align 8
  store ptr %0, ptr %3, align 8
  store ptr %1, ptr %4, align 8
  %6 = load ptr, ptr %4, align 8
  %7 = getelementptr inbounds %struct.cmsCIELab, ptr %6, i32 0, i32 0
  %8 = load double, ptr %7, align 8
  %9 = call double @Clamp_L_doubleV4(double noundef %8)
  %10 = getelementptr inbounds %struct.cmsCIELab, ptr %5, i32 0, i32 0
  store double %9, ptr %10, align 8
  %11 = load ptr, ptr %4, align 8
  %12 = getelementptr inbounds %struct.cmsCIELab, ptr %11, i32 0, i32 1
  %13 = load double, ptr %12, align 8
  %14 = call double @Clamp_ab_doubleV4(double noundef %13)
  %15 = getelementptr inbounds %struct.cmsCIELab, ptr %5, i32 0, i32 1
  store double %14, ptr %15, align 8
  %16 = load ptr, ptr %4, align 8
  %17 = getelementptr inbounds %struct.cmsCIELab, ptr %16, i32 0, i32 2
  %18 = load double, ptr %17, align 8
  %19 = call double @Clamp_ab_doubleV4(double noundef %18)
  %20 = getelementptr inbounds %struct.cmsCIELab, ptr %5, i32 0, i32 2
  store double %19, ptr %20, align 8
  %21 = getelementptr inbounds %struct.cmsCIELab, ptr %5, i32 0, i32 0
  %22 = load double, ptr %21, align 8
  %23 = call zeroext i16 @L2Fix4(double noundef %22)
  %24 = load ptr, ptr %3, align 8
  %25 = getelementptr inbounds i16, ptr %24, i64 0
  store i16 %23, ptr %25, align 2
  %26 = getelementptr inbounds %struct.cmsCIELab, ptr %5, i32 0, i32 1
  %27 = load double, ptr %26, align 8
  %28 = call zeroext i16 @ab2Fix4(double noundef %27)
  %29 = load ptr, ptr %3, align 8
  %30 = getelementptr inbounds i16, ptr %29, i64 1
  store i16 %28, ptr %30, align 2
  %31 = getelementptr inbounds %struct.cmsCIELab, ptr %5, i32 0, i32 2
  %32 = load double, ptr %31, align 8
  %33 = call zeroext i16 @ab2Fix4(double noundef %32)
  %34 = load ptr, ptr %3, align 8
  %35 = getelementptr inbounds i16, ptr %34, i64 2
  store i16 %33, ptr %35, align 2
  ret void
}