; Function Attrs: mustprogress nofree norecurse nosync nounwind willreturn memory(argmem: readwrite) uwtable
define hidden void @cmsFloat2LabEncoded(ptr nocapture noundef writeonly %0, ptr nocapture noundef readonly %1) local_unnamed_addr #0 {
  %3 = load double, ptr %1, align 8
  %4 = fcmp olt double %3, 0.000000e+00
  %.0.i = select i1 %4, double 0.000000e+00, double %3
  %5 = fcmp ogt double %.0.i, 1.000000e+02
  %.1.i = select i1 %5, double 1.000000e+02, double %.0.i
  %6 = getelementptr inbounds i8, ptr %1, i64 8
  %7 = load double, ptr %6, align 8
  %8 = fcmp olt double %7, -1.280000e+02
  %.0.i6 = select i1 %8, double -1.280000e+02, double %7
  %9 = fcmp ogt double %.0.i6, 1.270000e+02
  %.1.i7 = select i1 %9, double 1.270000e+02, double %.0.i6
  %10 = getelementptr inbounds i8, ptr %1, i64 16
  %11 = load double, ptr %10, align 8
  %12 = fcmp olt double %11, -1.280000e+02
  %.0.i8 = select i1 %12, double -1.280000e+02, double %11
  %13 = fcmp ogt double %.0.i8, 1.270000e+02
  %.1.i9 = select i1 %13, double 1.270000e+02, double %.0.i8
  %14 = fmul double %.1.i, 6.553500e+02
  %15 = fadd double %14, 5.000000e-01
  %16 = fcmp ugt double %15, 0.000000e+00
  br i1 %16, label %17, label %L2Fix4.exit

17:                                               ; preds = %2
  %18 = fcmp ult double %15, 6.553500e+04
  br i1 %18, label %19, label %L2Fix4.exit

19:                                               ; preds = %17
  %20 = fadd double %15, -3.276700e+04
  %21 = tail call double @llvm.floor.f64(double %20)
  %22 = fptosi double %21 to i32
  %23 = trunc i32 %22 to i16
  %24 = add i16 %23, 32767
  br label %L2Fix4.exit

L2Fix4.exit:                                      ; preds = %2, %17, %19
  %.0.i.i = phi i16 [ %24, %19 ], [ 0, %2 ], [ -1, %17 ]
  store i16 %.0.i.i, ptr %0, align 2
  %25 = fadd double %.1.i7, 1.280000e+02
  %26 = fmul double %25, 2.570000e+02
  %27 = fadd double %26, 5.000000e-01
  %28 = fcmp ugt double %27, 0.000000e+00
  br i1 %28, label %29, label %ab2Fix4.exit

29:                                               ; preds = %L2Fix4.exit
  %30 = fcmp ult double %27, 6.553500e+04
  br i1 %30, label %31, label %ab2Fix4.exit

31:                                               ; preds = %29
  %32 = fadd double %27, -3.276700e+04
  %33 = tail call double @llvm.floor.f64(double %32)
  %34 = fptosi double %33 to i32
  %35 = trunc i32 %34 to i16
  %36 = add i16 %35, 32767
  br label %ab2Fix4.exit

ab2Fix4.exit:                                     ; preds = %L2Fix4.exit, %29, %31
  %.0.i.i10 = phi i16 [ %36, %31 ], [ 0, %L2Fix4.exit ], [ -1, %29 ]
  %37 = getelementptr inbounds i8, ptr %0, i64 2
  store i16 %.0.i.i10, ptr %37, align 2
  %38 = fadd double %.1.i9, 1.280000e+02
  %39 = fmul double %38, 2.570000e+02
  %40 = fadd double %39, 5.000000e-01
  %41 = fcmp ugt double %40, 0.000000e+00
  br i1 %41, label %42, label %ab2Fix4.exit12

42:                                               ; preds = %ab2Fix4.exit
  %43 = fcmp ult double %40, 6.553500e+04
  br i1 %43, label %44, label %ab2Fix4.exit12

44:                                               ; preds = %42
  %45 = fadd double %40, -3.276700e+04
  %46 = tail call double @llvm.floor.f64(double %45)
  %47 = fptosi double %46 to i32
  %48 = trunc i32 %47 to i16
  %49 = add i16 %48, 32767
  br label %ab2Fix4.exit12

ab2Fix4.exit12:                                   ; preds = %ab2Fix4.exit, %42, %44
  %.0.i.i11 = phi i16 [ %49, %44 ], [ 0, %ab2Fix4.exit ], [ -1, %42 ]
  %50 = getelementptr inbounds i8, ptr %0, i64 4
  store i16 %.0.i.i11, ptr %50, align 2
  ret void
}